target datalayout = "e-m:e-p270:32:32-p271:32:32-p272:64:64-i64:64-i128:128-f80:128-n8:16:32:64-S128"
target triple = "x86_64-pc-linux-gnu"

%struct.ZSTDv01_Dctx_s = type { [1025 x i32], [513 x i32], [1025 x i32], ptr, ptr, i64, i32, i32 }

; Function Attrs: nounwind uwtable
define i64 @ZSTDv01_resetDCtx(ptr noundef %0) #0 {
  %2 = alloca ptr, align 8
  store ptr %0, ptr %2, align 8, !tbaa !25
  %3 = load ptr, ptr %2, align 8, !tbaa !25
  %4 = getelementptr inbounds nuw %struct.ZSTDv01_Dctx_s, ptr %3, i32 0, i32 5
  store i64 4, ptr %4, align 8, !tbaa !27
  %5 = load ptr, ptr %2, align 8, !tbaa !25
  %6 = getelementptr inbounds nuw %struct.ZSTDv01_Dctx_s, ptr %5, i32 0, i32 7
  store i32 0, ptr %6, align 4, !tbaa !28
  %7 = load ptr, ptr %2, align 8, !tbaa !25
  %8 = getelementptr inbounds nuw %struct.ZSTDv01_Dctx_s, ptr %7, i32 0, i32 3
  store ptr null, ptr %8, align 8, !tbaa !29
  %9 = load ptr, ptr %2, align 8, !tbaa !25
  %10 = getelementptr inbounds nuw %struct.ZSTDv01_Dctx_s, ptr %9, i32 0, i32 4
  store ptr null, ptr %10, align 8, !tbaa !17
  ret i64 0
}