; Function Attrs: mustprogress nofree norecurse nosync nounwind willreturn memory(argmem: write) uwtable
define noundef i64 @ZSTDv01_resetDCtx(ptr noundef writeonly captures(none) initializes((10256, 10280), (10284, 10288)) %0) local_unnamed_addr #4 {
  %2 = getelementptr inbounds nuw i8, ptr %0, i64 10272
  store i64 4, ptr %2, align 8, !tbaa !45
  %3 = getelementptr inbounds nuw i8, ptr %0, i64 10284
  store i32 0, ptr %3, align 4, !tbaa !46
  %4 = getelementptr inbounds nuw i8, ptr %0, i64 10256
  tail call void @llvm.memset.p0.i64(ptr noundef nonnull align 8 dereferenceable(16) %4, i8 0, i64 16, i1 false)
  ret i64 0
}